target datalayout = "e-m:e-p270:32:32-p271:32:32-p272:64:64-i64:64-i128:128-f80:128-n8:16:32:64-S128"
target triple = "x86_64-pc-linux-gnu"

@testctx = internal global ptr null, align 8
@.str.18 = private unnamed_addr constant [33 x i8] c"../openssl/test/evp_extra_test.c\00", align 1
@.str.406 = private unnamed_addr constant [4 x i8] c"ret\00", align 1

; Function Attrs: nounwind uwtable
define internal i32 @test_selection(ptr noundef %0, i32 noundef %1) #0 {
  %3 = alloca ptr, align 8
  %4 = alloca i32, align 4
  %5 = alloca i32, align 4
  %6 = alloca i32, align 4
  %7 = alloca ptr, align 8
  store ptr %0, ptr %3, align 8, !tbaa !21
  store i32 %1, ptr %4, align 4, !tbaa !9
  call void @llvm.lifetime.start.p0(i64 4, ptr %5) #8
  store i32 0, ptr %5, align 4, !tbaa !9
  call void @llvm.lifetime.start.p0(i64 4, ptr %6) #8
  call void @llvm.lifetime.start.p0(i64 8, ptr %7) #8
  %8 = call ptr @BIO_s_mem()
  %9 = call ptr @BIO_new(ptr noundef %8)
  store ptr %9, ptr %7, align 8, !tbaa !27
  %10 = load ptr, ptr %7, align 8, !tbaa !27
  %11 = load ptr, ptr %3, align 8, !tbaa !21
  %12 = call i32 @PEM_write_bio_PUBKEY(ptr noundef %10, ptr noundef %11)
  store i32 %12, ptr %6, align 4, !tbaa !9
  %13 = load i32, ptr %4, align 4, !tbaa !9
  %14 = and i32 %13, 2
  %15 = icmp ne i32 %14, 0
  br i1 %15, label %16, label %24

16:                                               ; preds = %2
  %17 = load i32, ptr %6, align 4, !tbaa !9
  %18 = icmp ne i32 %17, 0
  %19 = zext i1 %18 to i32
  %20 = call i32 @test_true(ptr noundef @.str.18, i32 noundef 972, ptr noundef @.str.406, i32 noundef %19)
  %21 = icmp ne i32 %20, 0
  br i1 %21, label %23, label %22

22:                                               ; preds = %16
  br label %57

23:                                               ; preds = %16
  br label %32

24:                                               ; preds = %2
  %25 = load i32, ptr %6, align 4, !tbaa !9
  %26 = icmp ne i32 %25, 0
  %27 = zext i1 %26 to i32
  %28 = call i32 @test_false(ptr noundef @.str.18, i32 noundef 975, ptr noundef @.str.406, i32 noundef %27)
  %29 = icmp ne i32 %28, 0
  br i1 %29, label %31, label %30

30:                                               ; preds = %24
  br label %57

31:                                               ; preds = %24
  br label %32

32:                                               ; preds = %31, %23
  %33 = load ptr, ptr %7, align 8, !tbaa !27
  %34 = load ptr, ptr %3, align 8, !tbaa !21
  %35 = load ptr, ptr @testctx, align 8, !tbaa !11
  %36 = call i32 @PEM_write_bio_PrivateKey_ex(ptr noundef %33, ptr noundef %34, ptr noundef null, ptr noundef null, i32 noundef 0, ptr noundef null, ptr noundef null, ptr noundef %35, ptr noundef null)
  store i32 %36, ptr %6, align 4, !tbaa !9
  %37 = load i32, ptr %4, align 4, !tbaa !9
  %38 = and i32 %37, 1
  %39 = icmp ne i32 %38, 0
  br i1 %39, label %40, label %48

40:                                               ; preds = %32
  %41 = load i32, ptr %6, align 4, !tbaa !9
  %42 = icmp ne i32 %41, 0
  %43 = zext i1 %42 to i32
  %44 = call i32 @test_true(ptr noundef @.str.18, i32 noundef 981, ptr noundef @.str.406, i32 noundef %43)
  %45 = icmp ne i32 %44, 0
  br i1 %45, label %47, label %46

46:                                               ; preds = %40
  br label %57

47:                                               ; preds = %40
  br label %56

48:                                               ; preds = %32
  %49 = load i32, ptr %6, align 4, !tbaa !9
  %50 = icmp ne i32 %49, 0
  %51 = zext i1 %50 to i32
  %52 = call i32 @test_false(ptr noundef @.str.18, i32 noundef 984, ptr noundef @.str.406, i32 noundef %51)
  %53 = icmp ne i32 %52, 0
  br i1 %53, label %55, label %54

54:                                               ; preds = %48
  br label %57

55:                                               ; preds = %48
  br label %56

56:                                               ; preds = %55, %47
  store i32 1, ptr %5, align 4, !tbaa !9
  br label %57

57:                                               ; preds = %56, %54, %46, %30, %22
  %58 = load ptr, ptr %7, align 8, !tbaa !27
  %59 = call i32 @BIO_free(ptr noundef %58)
  %60 = load i32, ptr %5, align 4, !tbaa !9
  call void @llvm.lifetime.end.p0(i64 8, ptr %7) #8
  call void @llvm.lifetime.end.p0(i64 4, ptr %6) #8
  call void @llvm.lifetime.end.p0(i64 4, ptr %5) #8
  ret i32 %60
}