; Function Attrs: nounwind uwtable
define internal fastcc range(i32 0, 2) i32 @test_selection(ptr noundef %0, i32 noundef range(i32 1, 136) %1) unnamed_addr #1 {
  %3 = tail call ptr @BIO_s_mem() #9
  %4 = tail call ptr @BIO_new(ptr noundef %3) #9
  %5 = tail call i32 @PEM_write_bio_PUBKEY(ptr noundef %4, ptr noundef %0) #9
  %6 = and i32 %1, 2
  %.not = icmp eq i32 %6, 0
  %7 = icmp ne i32 %5, 0
  %8 = zext i1 %7 to i32
  br i1 %.not, label %11, label %9

9:                                                ; preds = %2
  %10 = tail call i32 @test_true(ptr noundef nonnull @.str.18, i32 noundef 972, ptr noundef nonnull @.str.406, i32 noundef %8) #9
  %.not12 = icmp eq i32 %10, 0
  br i1 %.not12, label %24, label %13

11:                                               ; preds = %2
  %12 = tail call i32 @test_false(ptr noundef nonnull @.str.18, i32 noundef 975, ptr noundef nonnull @.str.406, i32 noundef %8) #9
  %.not11 = icmp eq i32 %12, 0
  br i1 %.not11, label %24, label %13

13:                                               ; preds = %11, %9
  %14 = load ptr, ptr @testctx, align 8, !tbaa !6
  %15 = tail call i32 @PEM_write_bio_PrivateKey_ex(ptr noundef %4, ptr noundef %0, ptr noundef null, ptr noundef null, i32 noundef 0, ptr noundef null, ptr noundef null, ptr noundef %14, ptr noundef null) #9
  %16 = and i32 %1, 1
  %.not13 = icmp eq i32 %16, 0
  %17 = icmp ne i32 %15, 0
  %18 = zext i1 %17 to i32
  br i1 %.not13, label %21, label %19

19:                                               ; preds = %13
  %20 = tail call i32 @test_true(ptr noundef nonnull @.str.18, i32 noundef 981, ptr noundef nonnull @.str.406, i32 noundef %18) #9
  %.not15 = icmp eq i32 %20, 0
  br i1 %.not15, label %24, label %23

21:                                               ; preds = %13
  %22 = tail call i32 @test_false(ptr noundef nonnull @.str.18, i32 noundef 984, ptr noundef nonnull @.str.406, i32 noundef %18) #9
  %.not14 = icmp eq i32 %22, 0
  br i1 %.not14, label %24, label %23

23:                                               ; preds = %21, %19
  br label %24

24:                                               ; preds = %21, %19, %11, %9, %23
  %.0 = phi i32 [ 1, %23 ], [ 0, %19 ], [ 0, %21 ], [ 0, %9 ], [ 0, %11 ]
  %25 = tail call i32 @BIO_free(ptr noundef %4) #9
  ret i32 %.0
}